target datalayout = "e-m:e-p270:32:32-p271:32:32-p272:64:64-i64:64-i128:128-f80:128-n8:16:32:64-S128"
target triple = "x86_64-pc-linux-gnu"

%struct.QMetaObject = type { %struct.anon }
%struct.anon = type { %"struct.QMetaObject::SuperData", ptr, ptr, ptr, ptr, ptr }
%"struct.QMetaObject::SuperData" = type { ptr }
%struct.QArrayData = type { %"class.QtPrivate::RefCount", i32, i32, i64 }
%"class.QtPrivate::RefCount" = type { %class.QBasicAtomicInteger }
%class.QBasicAtomicInteger = type { %"struct.std::atomic" }
%"struct.std::atomic" = type { %"struct.std::__atomic_base" }
%"struct.std::__atomic_base" = type { i32 }
%class.QString = type { ptr }

@_ZN21SelectionFilterPlugin16staticMetaObjectE = external global %struct.QMetaObject, align 8
@_ZN10QArrayData11shared_nullE = external global [2 x %struct.QArrayData], align 16
@.str.44 = private unnamed_addr constant [11 x i8] c"Select All\00", align 1
@.str.45 = private unnamed_addr constant [12 x i8] c"Select None\00", align 1
@.str.46 = private unnamed_addr constant [17 x i8] c"Invert Selection\00", align 1
@.str.47 = private unnamed_addr constant [23 x i8] c"Select Connected Faces\00", align 1
@.str.48 = private unnamed_addr constant [25 x i8] c"Delete Selected Vertices\00", align 1
@.str.49 = private unnamed_addr constant [17 x i8] c"Delete ALL Faces\00", align 1
@.str.50 = private unnamed_addr constant [22 x i8] c"Delete Selected Faces\00", align 1
@.str.51 = private unnamed_addr constant [35 x i8] c"Delete Selected Faces and Vertices\00", align 1
@.str.52 = private unnamed_addr constant [27 x i8] c"Select Faces by view angle\00", align 1
@.str.53 = private unnamed_addr constant [27 x i8] c"Select 'problematic' faces\00", align 1
@.str.54 = private unnamed_addr constant [27 x i8] c"Select Faces from Vertices\00", align 1
@.str.55 = private unnamed_addr constant [27 x i8] c"Select Vertices from Faces\00", align 1
@.str.56 = private unnamed_addr constant [16 x i8] c"Erode Selection\00", align 1
@.str.57 = private unnamed_addr constant [17 x i8] c"Dilate Selection\00", align 1
@.str.58 = private unnamed_addr constant [14 x i8] c"Select Border\00", align 1
@.str.59 = private unnamed_addr constant [25 x i8] c"Select by Vertex Quality\00", align 1
@.str.60 = private unnamed_addr constant [23 x i8] c"Select by Face Quality\00", align 1
@.str.61 = private unnamed_addr constant [22 x i8] c"Select Faces by Color\00", align 1
@.str.62 = private unnamed_addr constant [31 x i8] c"Select Self Intersecting Faces\00", align 1
@.str.63 = private unnamed_addr constant [28 x i8] c"Select Vertex Texture Seams\00", align 1
@.str.64 = private unnamed_addr constant [26 x i8] c"Select non Manifold Edges\00", align 1
@.str.65 = private unnamed_addr constant [29 x i8] c"Select non Manifold Vertices\00", align 1
@.str.66 = private unnamed_addr constant [39 x i8] c"Select Faces with edges longer than...\00", align 1
@.str.67 = private unnamed_addr constant [16 x i8] c"Select Outliers\00", align 1

; Function Attrs: mustprogress nounwind uwtable
define linkonce_odr noundef ptr @_ZN10QArrayData10sharedNullEv() #4 comdat align 2 {
  ret ptr @_ZN10QArrayData11shared_nullE
}

; Function Attrs: mustprogress nounwind uwtable
define linkonce_odr noundef ptr @_ZN15QTypedArrayDataItE10sharedNullEv() #4 comdat align 2 {
  %1 = call noundef ptr @_ZN10QArrayData10sharedNullEv() #3
  ret ptr %1
}

; Function Attrs: mustprogress nounwind uwtable
define linkonce_odr void @_ZN7QStringC2Ev(ptr noundef nonnull align 8 dereferenceable(8) %0) unnamed_addr #4 comdat align 2 {
  %2 = alloca ptr, align 8
  store ptr %0, ptr %2, align 8
  %3 = load ptr, ptr %2, align 8
  %4 = getelementptr inbounds %class.QString, ptr %3, i32 0, i32 0
  %5 = call noundef ptr @_ZN15QTypedArrayDataItE10sharedNullEv() #3
  store ptr %5, ptr %4, align 8
  ret void
}

; Function Attrs: mustprogress uwtable
define linkonce_odr void @_ZN21SelectionFilterPlugin2trEPKcS1_i(ptr dead_on_unwind noalias writable sret(%class.QString) align 8 %0, ptr noundef %1, ptr noundef %2, i32 noundef %3) #5 comdat align 2 {
  %5 = alloca ptr, align 8
  %6 = alloca ptr, align 8
  %7 = alloca ptr, align 8
  %8 = alloca i32, align 4
  store ptr %0, ptr %5, align 8
  store ptr %1, ptr %6, align 8
  store ptr %2, ptr %7, align 8
  store i32 %3, ptr %8, align 4
  %9 = load ptr, ptr %6, align 8
  %10 = load ptr, ptr %7, align 8
  %11 = load i32, ptr %8, align 4
  call void @_ZNK11QMetaObject2trEPKcS1_i(ptr dead_on_unwind writable sret(%class.QString) align 8 %0, ptr noundef nonnull align 8 dereferenceable(48) @_ZN21SelectionFilterPlugin16staticMetaObjectE, ptr noundef %9, ptr noundef %10, i32 noundef %11)
  ret void
}

; Function Attrs: mustprogress uwtable
define void @_ZNK21SelectionFilterPlugin10filterNameEi(ptr dead_on_unwind noalias writable sret(%class.QString) align 8 %0, ptr noundef nonnull align 8 dereferenceable(80) %1, i32 noundef %2) unnamed_addr #5 align 2 {
  %4 = alloca ptr, align 8
  %5 = alloca ptr, align 8
  %6 = alloca i32, align 4
  store ptr %0, ptr %4, align 8
  store ptr %1, ptr %5, align 8
  store i32 %2, ptr %6, align 4
  %7 = load i32, ptr %6, align 4
  switch i32 %7, label %32 [
    i32 0, label %8
    i32 1, label %9
    i32 4, label %10
    i32 5, label %11
    i32 8, label %12
    i32 9, label %13
    i32 10, label %14
    i32 11, label %15
    i32 2, label %16
    i32 3, label %17
    i32 6, label %18
    i32 7, label %19
    i32 12, label %20
    i32 13, label %21
    i32 14, label %22
    i32 16, label %23
    i32 15, label %24
    i32 18, label %25
    i32 19, label %26
    i32 20, label %27
    i32 21, label %28
    i32 22, label %29
    i32 23, label %30
    i32 24, label %31
  ]

8:                                                ; preds = %3
  call void @_ZN21SelectionFilterPlugin2trEPKcS1_i(ptr dead_on_unwind writable sret(%class.QString) align 8 %0, ptr noundef @.str.44, ptr noundef null, i32 noundef -1)
  br label %33

9:                                                ; preds = %3
  call void @_ZN21SelectionFilterPlugin2trEPKcS1_i(ptr dead_on_unwind writable sret(%class.QString) align 8 %0, ptr noundef @.str.45, ptr noundef null, i32 noundef -1)
  br label %33

10:                                               ; preds = %3
  call void @_ZN21SelectionFilterPlugin2trEPKcS1_i(ptr dead_on_unwind writable sret(%class.QString) align 8 %0, ptr noundef @.str.46, ptr noundef null, i32 noundef -1)
  br label %33

11:                                               ; preds = %3
  call void @_ZN21SelectionFilterPlugin2trEPKcS1_i(ptr dead_on_unwind writable sret(%class.QString) align 8 %0, ptr noundef @.str.47, ptr noundef null, i32 noundef -1)
  br label %33

12:                                               ; preds = %3
  call void @_ZN21SelectionFilterPlugin2trEPKcS1_i(ptr dead_on_unwind writable sret(%class.QString) align 8 %0, ptr noundef @.str.48, ptr noundef null, i32 noundef -1)
  br label %33

13:                                               ; preds = %3
  call void @_ZN21SelectionFilterPlugin2trEPKcS1_i(ptr dead_on_unwind writable sret(%class.QString) align 8 %0, ptr noundef @.str.49, ptr noundef null, i32 noundef -1)
  br label %33

14:                                               ; preds = %3
  call void @_ZN21SelectionFilterPlugin2trEPKcS1_i(ptr dead_on_unwind writable sret(%class.QString) align 8 %0, ptr noundef @.str.50, ptr noundef null, i32 noundef -1)
  br label %33

15:                                               ; preds = %3
  call void @_ZN21SelectionFilterPlugin2trEPKcS1_i(ptr dead_on_unwind writable sret(%class.QString) align 8 %0, ptr noundef @.str.51, ptr noundef null, i32 noundef -1)
  br label %33

16:                                               ; preds = %3
  call void @_ZN21SelectionFilterPlugin2trEPKcS1_i(ptr dead_on_unwind writable sret(%class.QString) align 8 %0, ptr noundef @.str.52, ptr noundef null, i32 noundef -1)
  br label %33

17:                                               ; preds = %3
  call void @_ZN21SelectionFilterPlugin2trEPKcS1_i(ptr dead_on_unwind writable sret(%class.QString) align 8 %0, ptr noundef @.str.53, ptr noundef null, i32 noundef -1)
  br label %33

18:                                               ; preds = %3
  call void @_ZN21SelectionFilterPlugin2trEPKcS1_i(ptr dead_on_unwind writable sret(%class.QString) align 8 %0, ptr noundef @.str.54, ptr noundef null, i32 noundef -1)
  br label %33

19:                                               ; preds = %3
  call void @_ZN21SelectionFilterPlugin2trEPKcS1_i(ptr dead_on_unwind writable sret(%class.QString) align 8 %0, ptr noundef @.str.55, ptr noundef null, i32 noundef -1)
  br label %33

20:                                               ; preds = %3
  call void @_ZN21SelectionFilterPlugin2trEPKcS1_i(ptr dead_on_unwind writable sret(%class.QString) align 8 %0, ptr noundef @.str.56, ptr noundef null, i32 noundef -1)
  br label %33

21:                                               ; preds = %3
  call void @_ZN21SelectionFilterPlugin2trEPKcS1_i(ptr dead_on_unwind writable sret(%class.QString) align 8 %0, ptr noundef @.str.57, ptr noundef null, i32 noundef -1)
  br label %33

22:                                               ; preds = %3
  call void @_ZN21SelectionFilterPlugin2trEPKcS1_i(ptr dead_on_unwind writable sret(%class.QString) align 8 %0, ptr noundef @.str.58, ptr noundef null, i32 noundef -1)
  br label %33

23:                                               ; preds = %3
  call void @_ZN21SelectionFilterPlugin2trEPKcS1_i(ptr dead_on_unwind writable sret(%class.QString) align 8 %0, ptr noundef @.str.59, ptr noundef null, i32 noundef -1)
  br label %33

24:                                               ; preds = %3
  call void @_ZN21SelectionFilterPlugin2trEPKcS1_i(ptr dead_on_unwind writable sret(%class.QString) align 8 %0, ptr noundef @.str.60, ptr noundef null, i32 noundef -1)
  br label %33

25:                                               ; preds = %3
  call void @_ZN21SelectionFilterPlugin2trEPKcS1_i(ptr dead_on_unwind writable sret(%class.QString) align 8 %0, ptr noundef @.str.61, ptr noundef null, i32 noundef -1)
  br label %33

26:                                               ; preds = %3
  call void @_ZN21SelectionFilterPlugin2trEPKcS1_i(ptr dead_on_unwind writable sret(%class.QString) align 8 %0, ptr noundef @.str.62, ptr noundef null, i32 noundef -1)
  br label %33

27:                                               ; preds = %3
  call void @_ZN21SelectionFilterPlugin2trEPKcS1_i(ptr dead_on_unwind writable sret(%class.QString) align 8 %0, ptr noundef @.str.63, ptr noundef null, i32 noundef -1)
  br label %33

28:                                               ; preds = %3
  call void @_ZN21SelectionFilterPlugin2trEPKcS1_i(ptr dead_on_unwind writable sret(%class.QString) align 8 %0, ptr noundef @.str.64, ptr noundef null, i32 noundef -1)
  br label %33

29:                                               ; preds = %3
  call void @_ZN21SelectionFilterPlugin2trEPKcS1_i(ptr dead_on_unwind writable sret(%class.QString) align 8 %0, ptr noundef @.str.65, ptr noundef null, i32 noundef -1)
  br label %33

30:                                               ; preds = %3
  call void @_ZN21SelectionFilterPlugin2trEPKcS1_i(ptr dead_on_unwind writable sret(%class.QString) align 8 %0, ptr noundef @.str.66, ptr noundef null, i32 noundef -1)
  br label %33

31:                                               ; preds = %3
  call void @_ZN21SelectionFilterPlugin2trEPKcS1_i(ptr dead_on_unwind writable sret(%class.QString) align 8 %0, ptr noundef @.str.67, ptr noundef null, i32 noundef -1)
  br label %33

32:                                               ; preds = %3
  call void @_ZN7QStringC2Ev(ptr noundef nonnull align 8 dereferenceable(8) %0) #3
  br label %33

33:                                               ; preds = %32, %31, %30, %29, %28, %27, %26, %25, %24, %23, %22, %21, %20, %19, %18, %17, %16, %15, %14, %13, %12, %11, %10, %9, %8
  ret void
}